target datalayout = "e-m:e-p270:32:32-p271:32:32-p272:64:64-i64:64-i128:128-f80:128-n8:16:32:64-S128"
target triple = "x86_64-pc-linux-gnu"

%struct.portalhashent = type { [64 x i8], ptr }
%struct.PortalData = type { ptr, ptr, ptr, ptr, ptr, i32, i32, i32, ptr, i32, %struct.QueryCompletion, ptr, ptr, ptr, ptr, i32, i32, i32, i8, i8, ptr, ptr, ptr, ptr, ptr, ptr, ptr, i8, i8, i64, i64, i8 }
%struct.QueryCompletion = type { i32, i64 }
%struct.HASH_SEQ_STATUS = type { ptr, i32, ptr, i8, i32 }

@PortalHashTable = internal global ptr null, align 8
@.str.3 = private unnamed_addr constant [12 x i8] c"portalmem.c\00", align 1
@.str.19 = private unnamed_addr constant [33 x i8] c"skipping cleanup for portal \22%s\22\00", align 1
@__func__.AtSubCleanup_Portals = private unnamed_addr constant [21 x i8] c"AtSubCleanup_Portals\00", align 1

; Function Attrs: nounwind uwtable
define dso_local void @AtSubCleanup_Portals(i32 noundef %0) #0 {
  %2 = alloca i32, align 4
  %3 = alloca %struct.HASH_SEQ_STATUS, align 8
  %4 = alloca ptr, align 8
  %5 = alloca ptr, align 8
  %6 = alloca i32, align 4
  store i32 %0, ptr %2, align 4
  call void @llvm.lifetime.start.p0(i64 32, ptr %3) #6
  call void @llvm.lifetime.start.p0(i64 8, ptr %4) #6
  %7 = load ptr, ptr @PortalHashTable, align 8
  call void @hash_seq_init(ptr noundef %3, ptr noundef %7)
  br label %8

8:                                                ; preds = %54, %52, %1
  %9 = call ptr @hash_seq_search(ptr noundef %3)
  store ptr %9, ptr %4, align 8
  %10 = icmp ne ptr %9, null
  br i1 %10, label %11, label %55

11:                                               ; preds = %8
  call void @llvm.lifetime.start.p0(i64 8, ptr %5) #6
  %12 = load ptr, ptr %4, align 8
  %13 = getelementptr inbounds nuw %struct.portalhashent, ptr %12, i32 0, i32 1
  %14 = load ptr, ptr %13, align 8
  store ptr %14, ptr %5, align 8
  %15 = load ptr, ptr %5, align 8
  %16 = getelementptr inbounds nuw %struct.PortalData, ptr %15, i32 0, i32 5
  %17 = load i32, ptr %16, align 8
  %18 = load i32, ptr %2, align 4
  %19 = icmp ne i32 %17, %18
  br i1 %19, label %20, label %21

20:                                               ; preds = %11
  store i32 2, ptr %6, align 4
  br label %52, !llvm.loop !15

21:                                               ; preds = %11
  %22 = load ptr, ptr %5, align 8
  %23 = getelementptr inbounds nuw %struct.PortalData, ptr %22, i32 0, i32 18
  %24 = load i8, ptr %23, align 4, !range !4, !noundef !5
  %25 = trunc i8 %24 to i1
  br i1 %25, label %26, label %29

26:                                               ; preds = %21
  %27 = load ptr, ptr %5, align 8
  %28 = getelementptr inbounds nuw %struct.PortalData, ptr %27, i32 0, i32 18
  store i8 0, ptr %28, align 4
  br label %29

29:                                               ; preds = %26, %21
  %30 = load ptr, ptr %5, align 8
  %31 = getelementptr inbounds nuw %struct.PortalData, ptr %30, i32 0, i32 4
  %32 = load ptr, ptr %31, align 8
  %33 = icmp ne ptr %32, null
  br i1 %33, label %34, label %50

34:                                               ; preds = %29
  br label %35

35:                                               ; preds = %34
  br i1 false, label %36, label %38

36:                                               ; preds = %35
  %37 = call zeroext i1 @errstart_cold(i32 noundef 19, ptr noundef null) #7
  br i1 %37, label %40, label %45

38:                                               ; preds = %35
  %39 = call zeroext i1 @errstart(i32 noundef 19, ptr noundef null)
  br i1 %39, label %40, label %45

40:                                               ; preds = %38, %36
  %41 = load ptr, ptr %5, align 8
  %42 = getelementptr inbounds nuw %struct.PortalData, ptr %41, i32 0, i32 0
  %43 = load ptr, ptr %42, align 8
  %44 = call i32 (ptr, ...) @errmsg_internal(ptr noundef @.str.19, ptr noundef %43)
  call void @errfinish(ptr noundef @.str.3, i32 noundef 1120, ptr noundef @__func__.AtSubCleanup_Portals)
  br label %45

45:                                               ; preds = %40, %38, %36
  br label %46

46:                                               ; preds = %45
  br label %47

47:                                               ; preds = %46
  %48 = load ptr, ptr %5, align 8
  %49 = getelementptr inbounds nuw %struct.PortalData, ptr %48, i32 0, i32 4
  store ptr null, ptr %49, align 8
  br label %50

50:                                               ; preds = %47, %29
  %51 = load ptr, ptr %5, align 8
  call void @PortalDrop(ptr noundef %51, i1 noundef zeroext false)
  store i32 0, ptr %6, align 4
  br label %52

52:                                               ; preds = %50, %20
  call void @llvm.lifetime.end.p0(i64 8, ptr %5) #6
  %53 = load i32, ptr %6, align 4
  switch i32 %53, label %56 [
    i32 0, label %54
    i32 2, label %8
  ]

54:                                               ; preds = %52
  br label %8, !llvm.loop !15

55:                                               ; preds = %8
  call void @llvm.lifetime.end.p0(i64 8, ptr %4) #6
  call void @llvm.lifetime.end.p0(i64 32, ptr %3) #6
  ret void

56:                                               ; preds = %52
  unreachable
}