; Function Attrs: nounwind uwtable
define dso_local void @AtSubCleanup_Portals(i32 noundef %0) local_unnamed_addr #0 {
  %2 = alloca %struct.HASH_SEQ_STATUS, align 8
  call void @llvm.lifetime.start.p0(i64 32, ptr nonnull %2) #8
  %3 = load ptr, ptr @PortalHashTable, align 8
  call void @hash_seq_init(ptr noundef nonnull %2, ptr noundef %3) #8
  %4 = call ptr @hash_seq_search(ptr noundef nonnull %2) #8
  %.not10 = icmp eq ptr %4, null
  br i1 %.not10, label %._crit_edge, label %.lr.ph

.lr.ph:                                           ; preds = %1, %25
  %5 = phi ptr [ %26, %25 ], [ %4, %1 ]
  %6 = getelementptr inbounds nuw i8, ptr %5, i64 64
  %7 = load ptr, ptr %6, align 8
  %8 = getelementptr inbounds nuw i8, ptr %7, i64 40
  %9 = load i32, ptr %8, align 8
  %.not8 = icmp eq i32 %9, %0
  br i1 %.not8, label %10, label %25, !llvm.loop !14

10:                                               ; preds = %.lr.ph
  %11 = getelementptr inbounds nuw i8, ptr %7, i64 132
  %12 = load i8, ptr %11, align 4, !range !4, !noundef !5
  %13 = trunc nuw i8 %12 to i1
  br i1 %13, label %14, label %15

14:                                               ; preds = %10
  store i8 0, ptr %11, align 4
  br label %15

15:                                               ; preds = %14, %10
  %16 = getelementptr inbounds nuw i8, ptr %7, i64 32
  %17 = load ptr, ptr %16, align 8
  %.not9 = icmp eq ptr %17, null
  br i1 %.not9, label %24, label %18

18:                                               ; preds = %15
  %19 = call zeroext i1 @errstart(i32 noundef 19, ptr noundef null) #8
  br i1 %19, label %20, label %23

20:                                               ; preds = %18
  %21 = load ptr, ptr %7, align 8
  %22 = call i32 (ptr, ...) @errmsg_internal(ptr noundef nonnull @.str.19, ptr noundef %21) #8
  call void @errfinish(ptr noundef nonnull @.str.3, i32 noundef 1120, ptr noundef nonnull @__func__.AtSubCleanup_Portals) #8
  br label %23

23:                                               ; preds = %20, %18
  store ptr null, ptr %16, align 8
  br label %24

24:                                               ; preds = %23, %15
  call void @PortalDrop(ptr noundef nonnull %7, i1 noundef zeroext false)
  br label %25

25:                                               ; preds = %.lr.ph, %24
  %26 = call ptr @hash_seq_search(ptr noundef nonnull %2) #8
  %.not = icmp eq ptr %26, null
  br i1 %.not, label %._crit_edge, label %.lr.ph

._crit_edge:                                      ; preds = %25, %1
  call void @llvm.lifetime.end.p0(i64 32, ptr nonnull %2) #8
  ret void
}